target datalayout = "e-m:e-p270:32:32-p271:32:32-p272:64:64-i64:64-i128:128-f80:128-n8:16:32:64-S128"
target triple = "x86_64-pc-linux-gnu"

%struct.pg_conn = type { ptr, ptr, ptr, ptr, ptr, ptr, ptr, ptr, ptr, ptr, ptr, ptr, ptr, ptr, ptr, ptr, ptr, ptr, ptr, ptr, ptr, ptr, ptr, ptr, ptr, ptr, ptr, ptr, ptr, ptr, ptr, ptr, ptr, ptr, ptr, ptr, ptr, ptr, ptr, ptr, ptr, ptr, ptr, i8, ptr, i32, %struct.PGNoticeHooks, ptr, i32, i32, i32, i32, i32, [6 x i8], i8, i8, i32, i8, i8, i32, i8, i32, ptr, ptr, i32, i32, ptr, ptr, ptr, ptr, ptr, i32, %struct.SockAddr, %struct.SockAddr, i32, i32, i8, i8, i8, i8, i8, i8, ptr, i8, i32, [1 x ptr], i8, i8, ptr, ptr, i32, i32, i32, i8, i8, i32, i32, ptr, i8, i64, ptr, i64, ptr, i32, i32, ptr, i32, i8, i32, i32, i32, i32, ptr, %struct.pg_prng_state, ptr, i32, i32, i32, i32, ptr, i32, i32, i32, i32, ptr, i32, ptr, i8, ptr, ptr, ptr, i32, i8, i8, i8, i8, i8, i8, i8, i8, %struct.PQExpBufferData, i32, %struct.PQExpBufferData }
%struct.PGNoticeHooks = type { ptr, ptr, ptr, ptr }
%struct.SockAddr = type { %struct.sockaddr_storage, i32 }
%struct.sockaddr_storage = type { i16, [118 x i8], i64 }
%struct.pg_prng_state = type { i64, i64 }
%struct.PQExpBufferData = type { ptr, i64, i64 }

; Function Attrs: nounwind uwtable
define internal i32 @getParameterStatus(ptr noundef %0) #0 {
  %2 = alloca i32, align 4
  %3 = alloca ptr, align 8
  %4 = alloca %struct.PQExpBufferData, align 8
  %5 = alloca i32, align 4
  store ptr %0, ptr %3, align 8
  call void @llvm.lifetime.start.p0(i64 24, ptr %4) #11
  %6 = load ptr, ptr %3, align 8
  %7 = getelementptr inbounds nuw %struct.pg_conn, ptr %6, i32 0, i32 142
  %8 = load ptr, ptr %3, align 8
  %9 = call i32 @pqGets(ptr noundef %7, ptr noundef %8)
  %10 = icmp ne i32 %9, 0
  br i1 %10, label %11, label %12

11:                                               ; preds = %1
  store i32 -1, ptr %2, align 4
  store i32 1, ptr %5, align 4
  br label %25

12:                                               ; preds = %1
  call void @initPQExpBuffer(ptr noundef %4)
  %13 = load ptr, ptr %3, align 8
  %14 = call i32 @pqGets(ptr noundef %4, ptr noundef %13)
  %15 = icmp ne i32 %14, 0
  br i1 %15, label %16, label %17

16:                                               ; preds = %12
  call void @termPQExpBuffer(ptr noundef %4)
  store i32 -1, ptr %2, align 4
  store i32 1, ptr %5, align 4
  br label %25

17:                                               ; preds = %12
  %18 = load ptr, ptr %3, align 8
  %19 = load ptr, ptr %3, align 8
  %20 = getelementptr inbounds nuw %struct.pg_conn, ptr %19, i32 0, i32 142
  %21 = getelementptr inbounds nuw %struct.PQExpBufferData, ptr %20, i32 0, i32 0
  %22 = load ptr, ptr %21, align 8
  %23 = getelementptr inbounds nuw %struct.PQExpBufferData, ptr %4, i32 0, i32 0
  %24 = load ptr, ptr %23, align 8
  call void @pqSaveParameterStatus(ptr noundef %18, ptr noundef %22, ptr noundef %24)
  call void @termPQExpBuffer(ptr noundef %4)
  store i32 0, ptr %2, align 4
  store i32 1, ptr %5, align 4
  br label %25

25:                                               ; preds = %17, %16, %11
  call void @llvm.lifetime.end.p0(i64 24, ptr %4) #11
  %26 = load i32, ptr %2, align 4
  ret i32 %26
}