; Function Attrs: nounwind uwtable
define internal fastcc range(i32 -1, 1) i32 @getParameterStatus(ptr noundef %0) unnamed_addr #0 {
  %2 = alloca %struct.PQExpBufferData, align 8
  call void @llvm.lifetime.start.p0(i64 24, ptr nonnull %2) #16
  %3 = getelementptr inbounds nuw i8, ptr %0, i64 1152
  %4 = tail call i32 @pqGets(ptr noundef nonnull %3, ptr noundef %0) #16
  %.not = icmp eq i32 %4, 0
  br i1 %.not, label %5, label %10

5:                                                ; preds = %1
  call void @initPQExpBuffer(ptr noundef nonnull %2) #16
  %6 = call i32 @pqGets(ptr noundef nonnull %2, ptr noundef nonnull %0) #16
  %.not5 = icmp eq i32 %6, 0
  br i1 %.not5, label %7, label %.sink.split

7:                                                ; preds = %5
  %8 = load ptr, ptr %3, align 8
  %9 = load ptr, ptr %2, align 8
  call void @pqSaveParameterStatus(ptr noundef nonnull %0, ptr noundef %8, ptr noundef %9) #16
  br label %.sink.split

.sink.split:                                      ; preds = %5, %7
  %.0.ph = phi i32 [ 0, %7 ], [ -1, %5 ]
  call void @termPQExpBuffer(ptr noundef nonnull %2) #16
  br label %10

10:                                               ; preds = %.sink.split, %1
  %.0 = phi i32 [ -1, %1 ], [ %.0.ph, %.sink.split ]
  call void @llvm.lifetime.end.p0(i64 24, ptr nonnull %2) #16
  ret i32 %.0
}